target datalayout = "e-m:e-p270:32:32-p271:32:32-p272:64:64-i64:64-i128:128-f80:128-n8:16:32:64-S128"
target triple = "x86_64-pc-linux-gnu"

%struct.UConverterSharedData = type { i32, i32, ptr, ptr, i8, i8, ptr, i32, %struct.UConverterMBCSTable }
%struct.UConverterMBCSTable = type { i8, i8, i8, i32, ptr, ptr, ptr, ptr, ptr, ptr, [64 x i16], ptr, ptr, i32, i8, i8, i8, i16, i32, ptr, ptr, ptr, ptr }
%struct.UConverter = type { ptr, ptr, ptr, ptr, ptr, ptr, ptr, i32, i8, i8, i8, i8, i8, [7 x i8], i32, i32, i32, i32, i8, i8, i8, i8, i8, i8, i8, i8, [8 x i8], [32 x i8], [2 x i16], [2 x i16], [32 x i16], i32, [19 x i16], [31 x i8], i8, i8, i8, i32 }
%struct.UConverterFromUnicodeArgs = type { i16, i8, ptr, ptr, ptr, ptr, ptr, ptr }

; Function Attrs: mustprogress uwtable
define internal void @_ZL17ucnv_MBCSWriteSubP25UConverterFromUnicodeArgsiP10UErrorCode(ptr noundef %0, i32 noundef %1, ptr noundef %2) #0 {
  %4 = alloca ptr, align 8
  %5 = alloca i32, align 4
  %6 = alloca ptr, align 8
  %7 = alloca ptr, align 8
  %8 = alloca ptr, align 8
  %9 = alloca ptr, align 8
  %10 = alloca [4 x i8], align 1
  %11 = alloca i32, align 4
  %12 = alloca i32, align 4
  store ptr %0, ptr %4, align 8, !tbaa !14
  store i32 %1, ptr %5, align 4, !tbaa !28
  store ptr %2, ptr %6, align 8, !tbaa !14
  call void @llvm.lifetime.start.p0(i64 8, ptr %7) #10
  %13 = load ptr, ptr %4, align 8, !tbaa !14
  %14 = getelementptr inbounds nuw %struct.UConverterFromUnicodeArgs, ptr %13, i32 0, i32 2
  %15 = load ptr, ptr %14, align 8, !tbaa !112
  store ptr %15, ptr %7, align 8, !tbaa !60
  call void @llvm.lifetime.start.p0(i64 8, ptr %8) #10
  call void @llvm.lifetime.start.p0(i64 8, ptr %9) #10
  call void @llvm.lifetime.start.p0(i64 4, ptr %10) #10
  call void @llvm.lifetime.start.p0(i64 4, ptr %11) #10
  %16 = load ptr, ptr %7, align 8, !tbaa !60
  %17 = getelementptr inbounds nuw %struct.UConverter, ptr %16, i32 0, i32 24
  %18 = load i8, ptr %17, align 2, !tbaa !196
  %19 = zext i8 %18 to i32
  %20 = icmp ne i32 %19, 0
  br i1 %20, label %21, label %48

21:                                               ; preds = %3
  %22 = load ptr, ptr %7, align 8, !tbaa !60
  %23 = getelementptr inbounds nuw %struct.UConverter, ptr %22, i32 0, i32 6
  %24 = load ptr, ptr %23, align 8, !tbaa !64
  %25 = getelementptr inbounds nuw %struct.UConverterSharedData, ptr %24, i32 0, i32 8
  %26 = getelementptr inbounds nuw %struct.UConverterMBCSTable, ptr %25, i32 0, i32 22
  %27 = load ptr, ptr %26, align 8, !tbaa !109
  %28 = icmp ne ptr %27, null
  br i1 %28, label %29, label %34

29:                                               ; preds = %21
  %30 = load ptr, ptr %7, align 8, !tbaa !60
  %31 = getelementptr inbounds nuw %struct.UConverter, ptr %30, i32 0, i32 25
  %32 = load i8, ptr %31, align 1, !tbaa !140
  %33 = sext i8 %32 to i32
  br label %42

34:                                               ; preds = %21
  %35 = load ptr, ptr %7, align 8, !tbaa !60
  %36 = getelementptr inbounds nuw %struct.UConverter, ptr %35, i32 0, i32 29
  %37 = getelementptr inbounds [2 x i16], ptr %36, i64 0, i64 0
  %38 = load i16, ptr %37, align 4, !tbaa !81
  %39 = zext i16 %38 to i32
  %40 = icmp sle i32 %39, 255
  %41 = zext i1 %40 to i32
  br label %42

42:                                               ; preds = %34, %29
  %43 = phi i32 [ %33, %29 ], [ %41, %34 ]
  %44 = icmp ne i32 %43, 0
  br i1 %44, label %45, label %48

45:                                               ; preds = %42
  %46 = load ptr, ptr %7, align 8, !tbaa !60
  %47 = getelementptr inbounds nuw %struct.UConverter, ptr %46, i32 0, i32 24
  store ptr %47, ptr %9, align 8, !tbaa !39
  store i32 1, ptr %11, align 4, !tbaa !28
  br label %56

48:                                               ; preds = %42, %3
  %49 = load ptr, ptr %7, align 8, !tbaa !60
  %50 = getelementptr inbounds nuw %struct.UConverter, ptr %49, i32 0, i32 5
  %51 = load ptr, ptr %50, align 8, !tbaa !197
  store ptr %51, ptr %9, align 8, !tbaa !39
  %52 = load ptr, ptr %7, align 8, !tbaa !60
  %53 = getelementptr inbounds nuw %struct.UConverter, ptr %52, i32 0, i32 19
  %54 = load i8, ptr %53, align 1, !tbaa !198
  %55 = sext i8 %54 to i32
  store i32 %55, ptr %11, align 4, !tbaa !28
  br label %56

56:                                               ; preds = %48, %45
  %57 = load ptr, ptr %7, align 8, !tbaa !60
  %58 = getelementptr inbounds nuw %struct.UConverter, ptr %57, i32 0, i32 25
  store i8 0, ptr %58, align 1, !tbaa !140
  %59 = load ptr, ptr %7, align 8, !tbaa !60
  %60 = getelementptr inbounds nuw %struct.UConverter, ptr %59, i32 0, i32 6
  %61 = load ptr, ptr %60, align 8, !tbaa !64
  %62 = getelementptr inbounds nuw %struct.UConverterSharedData, ptr %61, i32 0, i32 8
  %63 = getelementptr inbounds nuw %struct.UConverterMBCSTable, ptr %62, i32 0, i32 14
  %64 = load i8, ptr %63, align 4, !tbaa !52
  %65 = zext i8 %64 to i32
  %66 = icmp eq i32 %65, 12
  br i1 %66, label %67, label %117

67:                                               ; preds = %56
  %68 = getelementptr inbounds [4 x i8], ptr %10, i64 0, i64 0
  store ptr %68, ptr %8, align 8, !tbaa !39
  %69 = load i32, ptr %11, align 4, !tbaa !28
  switch i32 %69, label %107 [
    i32 1, label %70
    i32 2, label %86
  ]

70:                                               ; preds = %67
  %71 = load ptr, ptr %7, align 8, !tbaa !60
  %72 = getelementptr inbounds nuw %struct.UConverter, ptr %71, i32 0, i32 16
  %73 = load i32, ptr %72, align 8, !tbaa !128
  %74 = icmp eq i32 %73, 2
  br i1 %74, label %75, label %80

75:                                               ; preds = %70
  %76 = load ptr, ptr %7, align 8, !tbaa !60
  %77 = getelementptr inbounds nuw %struct.UConverter, ptr %76, i32 0, i32 16
  store i32 1, ptr %77, align 8, !tbaa !128
  %78 = load ptr, ptr %8, align 8, !tbaa !39
  %79 = getelementptr inbounds nuw i8, ptr %78, i32 1
  store ptr %79, ptr %8, align 8, !tbaa !39
  store i8 15, ptr %78, align 1, !tbaa !40
  br label %80

80:                                               ; preds = %75, %70
  %81 = load ptr, ptr %9, align 8, !tbaa !39
  %82 = getelementptr inbounds i8, ptr %81, i64 0
  %83 = load i8, ptr %82, align 1, !tbaa !40
  %84 = load ptr, ptr %8, align 8, !tbaa !39
  %85 = getelementptr inbounds nuw i8, ptr %84, i32 1
  store ptr %85, ptr %8, align 8, !tbaa !39
  store i8 %83, ptr %84, align 1, !tbaa !40
  br label %109

86:                                               ; preds = %67
  %87 = load ptr, ptr %7, align 8, !tbaa !60
  %88 = getelementptr inbounds nuw %struct.UConverter, ptr %87, i32 0, i32 16
  %89 = load i32, ptr %88, align 8, !tbaa !128
  %90 = icmp ule i32 %89, 1
  br i1 %90, label %91, label %96

91:                                               ; preds = %86
  %92 = load ptr, ptr %7, align 8, !tbaa !60
  %93 = getelementptr inbounds nuw %struct.UConverter, ptr %92, i32 0, i32 16
  store i32 2, ptr %93, align 8, !tbaa !128
  %94 = load ptr, ptr %8, align 8, !tbaa !39
  %95 = getelementptr inbounds nuw i8, ptr %94, i32 1
  store ptr %95, ptr %8, align 8, !tbaa !39
  store i8 14, ptr %94, align 1, !tbaa !40
  br label %96

96:                                               ; preds = %91, %86
  %97 = load ptr, ptr %9, align 8, !tbaa !39
  %98 = getelementptr inbounds i8, ptr %97, i64 0
  %99 = load i8, ptr %98, align 1, !tbaa !40
  %100 = load ptr, ptr %8, align 8, !tbaa !39
  %101 = getelementptr inbounds nuw i8, ptr %100, i32 1
  store ptr %101, ptr %8, align 8, !tbaa !39
  store i8 %99, ptr %100, align 1, !tbaa !40
  %102 = load ptr, ptr %9, align 8, !tbaa !39
  %103 = getelementptr inbounds i8, ptr %102, i64 1
  %104 = load i8, ptr %103, align 1, !tbaa !40
  %105 = load ptr, ptr %8, align 8, !tbaa !39
  %106 = getelementptr inbounds nuw i8, ptr %105, i32 1
  store ptr %106, ptr %8, align 8, !tbaa !39
  store i8 %104, ptr %105, align 1, !tbaa !40
  br label %109

107:                                              ; preds = %67
  %108 = load ptr, ptr %6, align 8, !tbaa !14
  store i32 1, ptr %108, align 4, !tbaa !48
  store i32 1, ptr %12, align 4
  br label %123

109:                                              ; preds = %96, %80
  %110 = getelementptr inbounds [4 x i8], ptr %10, i64 0, i64 0
  store ptr %110, ptr %9, align 8, !tbaa !39
  %111 = load ptr, ptr %8, align 8, !tbaa !39
  %112 = getelementptr inbounds [4 x i8], ptr %10, i64 0, i64 0
  %113 = ptrtoint ptr %111 to i64
  %114 = ptrtoint ptr %112 to i64
  %115 = sub i64 %113, %114
  %116 = trunc i64 %115 to i32
  store i32 %116, ptr %11, align 4, !tbaa !28
  br label %117

117:                                              ; preds = %109, %56
  %118 = load ptr, ptr %4, align 8, !tbaa !14
  %119 = load ptr, ptr %9, align 8, !tbaa !39
  %120 = load i32, ptr %11, align 4, !tbaa !28
  %121 = load i32, ptr %5, align 4, !tbaa !28
  %122 = load ptr, ptr %6, align 8, !tbaa !14
  call void @ucnv_cbFromUWriteBytes_77(ptr noundef %118, ptr noundef %119, i32 noundef %120, i32 noundef %121, ptr noundef %122)
  store i32 0, ptr %12, align 4
  br label %123

123:                                              ; preds = %117, %107
  call void @llvm.lifetime.end.p0(i64 4, ptr %11) #10
  call void @llvm.lifetime.end.p0(i64 4, ptr %10) #10
  call void @llvm.lifetime.end.p0(i64 8, ptr %9) #10
  call void @llvm.lifetime.end.p0(i64 8, ptr %8) #10
  call void @llvm.lifetime.end.p0(i64 8, ptr %7) #10
  %124 = load i32, ptr %12, align 4
  switch i32 %124, label %126 [
    i32 0, label %125
    i32 1, label %125
  ]

125:                                              ; preds = %123, %123
  ret void

126:                                              ; preds = %123
  unreachable
}