; Function Attrs: mustprogress uwtable
define internal void @_ZL17ucnv_MBCSWriteSubP25UConverterFromUnicodeArgsiP10UErrorCode(ptr noundef %0, i32 noundef %1, ptr noundef %2) #0 {
  %4 = alloca [4 x i8], align 1
  %5 = getelementptr inbounds nuw i8, ptr %0, i64 8
  %6 = load ptr, ptr %5, align 8, !tbaa !90
  call void @llvm.lifetime.start.p0(i64 4, ptr nonnull %4) #15
  %7 = getelementptr inbounds nuw i8, ptr %6, i64 94
  %8 = load i8, ptr %7, align 2, !tbaa !174
  %.not = icmp eq i8 %8, 0
  %.phi.trans.insert.phi.trans.insert = getelementptr inbounds nuw i8, ptr %6, i64 48
  %.pre.pre = load ptr, ptr %.phi.trans.insert.phi.trans.insert, align 8, !tbaa !50
  br i1 %.not, label %._crit_edge, label %9

9:                                                ; preds = %3
  %10 = getelementptr inbounds nuw i8, ptr %.pre.pre, i64 288
  %11 = load ptr, ptr %10, align 8, !tbaa !67
  %.not33 = icmp eq ptr %11, null
  br i1 %.not33, label %16, label %12

12:                                               ; preds = %9
  %13 = getelementptr inbounds nuw i8, ptr %6, i64 95
  %14 = load i8, ptr %13, align 1, !tbaa !114
  %15 = icmp eq i8 %14, 0
  br i1 %15, label %._crit_edge, label %25

16:                                               ; preds = %9
  %17 = getelementptr inbounds nuw i8, ptr %6, i64 140
  %18 = load i16, ptr %17, align 4, !tbaa !62
  %19 = icmp ugt i16 %18, 255
  br i1 %19, label %._crit_edge, label %25

._crit_edge:                                      ; preds = %3, %12, %16
  %20 = getelementptr inbounds nuw i8, ptr %6, i64 40
  %21 = load ptr, ptr %20, align 8, !tbaa !175
  %22 = getelementptr inbounds nuw i8, ptr %6, i64 89
  %23 = load i8, ptr %22, align 1, !tbaa !176
  %24 = sext i8 %23 to i32
  br label %25

25:                                               ; preds = %12, %16, %._crit_edge
  %.029 = phi ptr [ %21, %._crit_edge ], [ %7, %16 ], [ %7, %12 ]
  %.0 = phi i32 [ %24, %._crit_edge ], [ 1, %16 ], [ 1, %12 ]
  %26 = getelementptr inbounds nuw i8, ptr %6, i64 95
  store i8 0, ptr %26, align 1, !tbaa !114
  %27 = getelementptr inbounds nuw i8, ptr %.pre.pre, i64 252
  %28 = load i8, ptr %27, align 4, !tbaa !39
  %29 = icmp eq i8 %28, 12
  br i1 %29, label %30, label %58

30:                                               ; preds = %25
  switch i32 %.0, label %52 [
    i32 1, label %31
    i32 2, label %40
  ]

31:                                               ; preds = %30
  %32 = getelementptr inbounds nuw i8, ptr %6, i64 80
  %33 = load i32, ptr %32, align 8, !tbaa !112
  %34 = icmp eq i32 %33, 2
  br i1 %34, label %35, label %37

35:                                               ; preds = %31
  store i32 1, ptr %32, align 8, !tbaa !112
  %36 = getelementptr inbounds nuw i8, ptr %4, i64 1
  store i8 15, ptr %4, align 1, !tbaa !28
  br label %37

37:                                               ; preds = %35, %31
  %.031 = phi ptr [ %36, %35 ], [ %4, %31 ]
  %38 = load i8, ptr %.029, align 1, !tbaa !28
  %39 = getelementptr inbounds nuw i8, ptr %.031, i64 1
  store i8 %38, ptr %.031, align 1, !tbaa !28
  br label %53

40:                                               ; preds = %30
  %41 = getelementptr inbounds nuw i8, ptr %6, i64 80
  %42 = load i32, ptr %41, align 8, !tbaa !112
  %43 = icmp ult i32 %42, 2
  br i1 %43, label %44, label %46

44:                                               ; preds = %40
  store i32 2, ptr %41, align 8, !tbaa !112
  %45 = getelementptr inbounds nuw i8, ptr %4, i64 1
  store i8 14, ptr %4, align 1, !tbaa !28
  br label %46

46:                                               ; preds = %44, %40
  %.2 = phi ptr [ %45, %44 ], [ %4, %40 ]
  %47 = load i8, ptr %.029, align 1, !tbaa !28
  %48 = getelementptr inbounds nuw i8, ptr %.2, i64 1
  store i8 %47, ptr %.2, align 1, !tbaa !28
  %49 = getelementptr inbounds nuw i8, ptr %.029, i64 1
  %50 = load i8, ptr %49, align 1, !tbaa !28
  %51 = getelementptr inbounds nuw i8, ptr %.2, i64 2
  store i8 %50, ptr %48, align 1, !tbaa !28
  br label %53

52:                                               ; preds = %30
  store i32 1, ptr %2, align 4, !tbaa !35
  br label %59

53:                                               ; preds = %46, %37
  %.132 = phi ptr [ %51, %46 ], [ %39, %37 ]
  %54 = ptrtoint ptr %.132 to i64
  %55 = ptrtoint ptr %4 to i64
  %56 = sub i64 %54, %55
  %57 = trunc i64 %56 to i32
  br label %58

58:                                               ; preds = %53, %25
  %.130 = phi ptr [ %4, %53 ], [ %.029, %25 ]
  %.1 = phi i32 [ %57, %53 ], [ %.0, %25 ]
  call void @ucnv_cbFromUWriteBytes_77(ptr noundef nonnull %0, ptr noundef %.130, i32 noundef %.1, i32 noundef %1, ptr noundef %2)
  br label %59

59:                                               ; preds = %58, %52
  call void @llvm.lifetime.end.p0(i64 4, ptr nonnull %4) #15
  ret void
}